; Function Attrs: mustprogress uwtable
define internal fastcc void @"_ZZN8facebook5velox11printVectorB5cxx11ERKNS0_10BaseVectorERKNS0_17SelectivityVectorEENK3$_0clIiEEDaT_"(ptr nocapture noundef nonnull readonly align 8 dereferenceable(16) %this, i32 noundef %i) unnamed_addr #2 align 2 personality ptr @__gxx_personality_v0 {
entry:
  %ref.tmp = alloca %"class.std::__cxx11::basic_string", align 8
  %ref.tmp9 = alloca %"class.std::__cxx11::basic_string", align 8
  %0 = load ptr, ptr %this, align 8
  %add.ptr = getelementptr inbounds i8, ptr %0, i64 16
  %call = tail call noundef nonnull align 8 dereferenceable(8) ptr @_ZStlsISt11char_traitsIcEERSt13basic_ostreamIcT_ES5_PKc(ptr noundef nonnull align 8 dereferenceable(8) %add.ptr, ptr noundef nonnull @.str.33)
  %call2 = tail call noundef nonnull align 8 dereferenceable(8) ptr @_ZNSolsEi(ptr noundef nonnull align 8 dereferenceable(8) %call, i32 noundef %i)
  %call3 = tail call noundef nonnull align 8 dereferenceable(8) ptr @_ZStlsISt11char_traitsIcEERSt13basic_ostreamIcT_ES5_PKc(ptr noundef nonnull align 8 dereferenceable(8) %call2, ptr noundef nonnull @.str.5)
  %1 = getelementptr inbounds i8, ptr %this, i64 8
  %2 = load ptr, ptr %1, align 8
  %.val4 = load ptr, ptr %2, align 8
  call fastcc void @_ZNK8facebook5velox12_GLOBAL__N_113VectorPrinter9summarizeB5cxx11Ei(ptr noalias nonnull align 8 %ref.tmp, ptr noundef nonnull align 8 dereferenceable(152) %.val4, i32 noundef %i)
  %call5 = invoke noundef nonnull align 8 dereferenceable(8) ptr @_ZStlsIcSt11char_traitsIcESaIcEERSt13basic_ostreamIT_T0_ES7_RKNSt7__cxx1112basic_stringIS4_S5_T1_EE(ptr noundef nonnull align 8 dereferenceable(8) %call3, ptr noundef nonnull align 8 dereferenceable(32) %ref.tmp)
          to label %invoke.cont unwind label %lpad

invoke.cont:                                      ; preds = %entry
  %call7 = invoke noundef nonnull align 8 dereferenceable(8) ptr @_ZNSolsEPFRSoS_E(ptr noundef nonnull align 8 dereferenceable(8) %call5, ptr noundef nonnull @_ZSt4endlIcSt11char_traitsIcEERSt13basic_ostreamIT_T0_ES6_)
          to label %invoke.cont6 unwind label %lpad

invoke.cont6:                                     ; preds = %invoke.cont
  call void @_ZNSt7__cxx1112basic_stringIcSt11char_traitsIcESaIcEED1Ev(ptr noundef nonnull align 8 dereferenceable(32) %ref.tmp) #20
  %3 = load ptr, ptr %this, align 8
  %add.ptr8 = getelementptr inbounds i8, ptr %3, i64 16
  %4 = load ptr, ptr %1, align 8
  %.val = load ptr, ptr %4, align 8
  call fastcc void @_ZNK8facebook5velox12_GLOBAL__N_113VectorPrinter5printEiRKNSt7__cxx1112basic_stringIcSt11char_traitsIcESaIcEEE(ptr noalias nonnull align 8 %ref.tmp9, ptr noundef nonnull align 8 dereferenceable(152) %.val, i32 noundef %i, ptr noundef nonnull align 8 dereferenceable(32) @_ZN8facebook5velox12_GLOBAL__N_17kIndentB5cxx11E)
  %call13 = invoke noundef nonnull align 8 dereferenceable(8) ptr @_ZStlsIcSt11char_traitsIcESaIcEERSt13basic_ostreamIT_T0_ES7_RKNSt7__cxx1112basic_stringIS4_S5_T1_EE(ptr noundef nonnull align 8 dereferenceable(8) %add.ptr8, ptr noundef nonnull align 8 dereferenceable(32) %ref.tmp9)
          to label %invoke.cont12 unwind label %lpad11

invoke.cont12:                                    ; preds = %invoke.cont6
  call void @_ZNSt7__cxx1112basic_stringIcSt11char_traitsIcESaIcEED1Ev(ptr noundef nonnull align 8 dereferenceable(32) %ref.tmp9) #20
  %5 = load ptr, ptr %this, align 8
  %add.ptr14 = getelementptr inbounds i8, ptr %5, i64 16
  %call15 = call noundef nonnull align 8 dereferenceable(8) ptr @_ZStlsIcSt11char_traitsIcESaIcEERSt13basic_ostreamIT_T0_ES7_RKNSt7__cxx1112basic_stringIS4_S5_T1_EE(ptr noundef nonnull align 8 dereferenceable(8) %add.ptr14, ptr noundef nonnull align 8 dereferenceable(32) @_ZZN8facebook5velox11printVectorB5cxx11ERKNS0_10BaseVectorERKNS0_17SelectivityVectorEE10kSeparatorB5cxx11)
  %call16 = call noundef nonnull align 8 dereferenceable(8) ptr @_ZNSolsEPFRSoS_E(ptr noundef nonnull align 8 dereferenceable(8) %call15, ptr noundef nonnull @_ZSt4endlIcSt11char_traitsIcEERSt13basic_ostreamIT_T0_ES6_)
  ret void

lpad:                                             ; preds = %invoke.cont, %entry
  %6 = landingpad { ptr, i32 }
          cleanup
  br label %eh.resume

lpad11:                                           ; preds = %invoke.cont6
  %7 = landingpad { ptr, i32 }
          cleanup
  br label %eh.resume

eh.resume:                                        ; preds = %lpad11, %lpad
  %ref.tmp9.sink = phi ptr [ %ref.tmp9, %lpad11 ], [ %ref.tmp, %lpad ]
  %.pn = phi { ptr, i32 } [ %7, %lpad11 ], [ %6, %lpad ]
  call void @_ZNSt7__cxx1112basic_stringIcSt11char_traitsIcESaIcEED1Ev(ptr noundef nonnull align 8 dereferenceable(32) %ref.tmp9.sink) #20
  resume { ptr, i32 } %.pn
}